; Function Attrs: nounwind uwtable
define range(i32 0, -2147483648) i32 @X509_NAME_entry_count(ptr noundef readonly captures(address_is_null) %0) local_unnamed_addr #0 {
  %2 = icmp eq ptr %0, null
  br i1 %2, label %7, label %3

3:                                                ; preds = %1
  %4 = load ptr, ptr %0, align 8, !tbaa !3
  %5 = tail call i32 @OPENSSL_sk_num(ptr noundef %4) #6
  %6 = tail call i32 @llvm.smax.i32(i32 %5, i32 0)
  br label %7

7:                                                ; preds = %1, %3
  %.0 = phi i32 [ %6, %3 ], [ 0, %1 ]
  ret i32 %.0
}